; Function Attrs: mustprogress nounwind uwtable
define dso_local noundef zeroext i1 @_ZN4node6crypto13DiffieHellman13VerifyContextEv(ptr nocapture noundef nonnull align 8 dereferenceable(48) %this) local_unnamed_addr #3 align 2 {
entry:
  %codes = alloca i32, align 4
  %dh_ = getelementptr inbounds i8, ptr %this, i64 40
  %0 = load ptr, ptr %dh_, align 8
  %call2 = call i32 @DH_check(ptr noundef %0, ptr noundef nonnull %codes) #18
  %tobool.not = icmp ne i32 %call2, 0
  br i1 %tobool.not, label %if.end, label %return

if.end:                                           ; preds = %entry
  %1 = load i32, ptr %codes, align 4
  %verifyError_ = getelementptr inbounds i8, ptr %this, i64 32
  store i32 %1, ptr %verifyError_, align 8
  br label %return

return:                                           ; preds = %entry, %if.end
  ret i1 %tobool.not
}